target datalayout = "e-m:e-p270:32:32-p271:32:32-p272:64:64-i64:64-i128:128-f80:128-n8:16:32:64-S128"
target triple = "x86_64-pc-linux-gnu"

%struct.xorkey_st = type { [32 x i8], [32 x i8], i32, i32, ptr, %struct.CRYPTO_REF_COUNT }
%struct.CRYPTO_REF_COUNT = type { i32 }
%struct.PROV_XORSIG_CTX = type { ptr, ptr, ptr, i8, [50 x i8], ptr, i64, ptr, ptr, i32 }

@.str.2 = private unnamed_addr constant [31 x i8] c"../openssl/test/tls-provider.c\00", align 1

; Function Attrs: inlinehint nounwind uwtable
define internal void @CRYPTO_FREE_REF(ptr noundef %0) #3 {
  %2 = alloca ptr, align 8
  store ptr %0, ptr %2, align 8, !tbaa !13
  ret void
}

; Function Attrs: inlinehint nounwind uwtable
define internal i32 @CRYPTO_DOWN_REF(ptr noundef %0, ptr noundef %1) #3 {
  %3 = alloca ptr, align 8
  %4 = alloca ptr, align 8
  %5 = alloca i32, align 4
  %6 = alloca i32, align 4
  store ptr %0, ptr %3, align 8, !tbaa !13
  store ptr %1, ptr %4, align 8, !tbaa !33
  %7 = load ptr, ptr %3, align 8, !tbaa !13
  %8 = getelementptr inbounds nuw %struct.CRYPTO_REF_COUNT, ptr %7, i32 0, i32 0
  store i32 1, ptr %5, align 4, !tbaa !27
  %9 = load i32, ptr %5, align 4
  %10 = atomicrmw sub ptr %8, i32 %9 release, align 4
  store i32 %10, ptr %6, align 4
  %11 = load i32, ptr %6, align 4, !tbaa !27
  %12 = sub nsw i32 %11, 1
  %13 = load ptr, ptr %4, align 8, !tbaa !33
  store i32 %12, ptr %13, align 4, !tbaa !27
  %14 = load ptr, ptr %4, align 8, !tbaa !33
  %15 = load i32, ptr %14, align 4, !tbaa !27
  %16 = icmp eq i32 %15, 0
  br i1 %16, label %17, label %18

17:                                               ; preds = %2
  fence acquire
  br label %18

18:                                               ; preds = %17, %2
  ret i32 1
}

; Function Attrs: nounwind uwtable
define internal void @xor_freekey(ptr noundef %0) #0 {
  %2 = alloca ptr, align 8
  %3 = alloca ptr, align 8
  %4 = alloca i32, align 4
  %5 = alloca i32, align 4
  store ptr %0, ptr %2, align 8, !tbaa !13
  call void @llvm.lifetime.start.p0(i64 8, ptr %3) #8
  %6 = load ptr, ptr %2, align 8, !tbaa !13
  store ptr %6, ptr %3, align 8, !tbaa !41
  call void @llvm.lifetime.start.p0(i64 4, ptr %4) #8
  %7 = load ptr, ptr %3, align 8, !tbaa !41
  %8 = icmp eq ptr %7, null
  br i1 %8, label %9, label %10

9:                                                ; preds = %1
  store i32 1, ptr %5, align 4
  br label %33

10:                                               ; preds = %1
  %11 = load ptr, ptr %3, align 8, !tbaa !41
  %12 = getelementptr inbounds nuw %struct.xorkey_st, ptr %11, i32 0, i32 5
  %13 = call i32 @CRYPTO_DOWN_REF(ptr noundef %12, ptr noundef %4)
  %14 = icmp sle i32 %13, 0
  br i1 %14, label %15, label %16

15:                                               ; preds = %10
  store i32 1, ptr %5, align 4
  br label %33

16:                                               ; preds = %10
  %17 = load i32, ptr %4, align 4, !tbaa !27
  %18 = icmp sgt i32 %17, 0
  br i1 %18, label %19, label %20

19:                                               ; preds = %16
  store i32 1, ptr %5, align 4
  br label %33

20:                                               ; preds = %16
  %21 = load ptr, ptr %3, align 8, !tbaa !41
  %22 = icmp ne ptr %21, null
  br i1 %22, label %23, label %29

23:                                               ; preds = %20
  %24 = load ptr, ptr %3, align 8, !tbaa !41
  %25 = getelementptr inbounds nuw %struct.xorkey_st, ptr %24, i32 0, i32 4
  %26 = load ptr, ptr %25, align 8, !tbaa !59
  call void @CRYPTO_free(ptr noundef %26, ptr noundef @.str.2, i32 noundef 720)
  %27 = load ptr, ptr %3, align 8, !tbaa !41
  %28 = getelementptr inbounds nuw %struct.xorkey_st, ptr %27, i32 0, i32 4
  store ptr null, ptr %28, align 8, !tbaa !59
  br label %29

29:                                               ; preds = %23, %20
  %30 = load ptr, ptr %3, align 8, !tbaa !41
  %31 = getelementptr inbounds nuw %struct.xorkey_st, ptr %30, i32 0, i32 5
  call void @CRYPTO_FREE_REF(ptr noundef %31)
  %32 = load ptr, ptr %3, align 8, !tbaa !41
  call void @CRYPTO_free(ptr noundef %32, ptr noundef @.str.2, i32 noundef 724)
  store i32 0, ptr %5, align 4
  br label %33

33:                                               ; preds = %29, %19, %15, %9
  call void @llvm.lifetime.end.p0(i64 4, ptr %4) #8
  call void @llvm.lifetime.end.p0(i64 8, ptr %3) #8
  %34 = load i32, ptr %5, align 4
  switch i32 %34, label %36 [
    i32 0, label %35
    i32 1, label %35
  ]

35:                                               ; preds = %33, %33
  ret void

36:                                               ; preds = %33
  unreachable
}

; Function Attrs: nounwind uwtable
define internal void @xor_sig_freectx(ptr noundef %0) #0 {
  %2 = alloca ptr, align 8
  %3 = alloca ptr, align 8
  store ptr %0, ptr %2, align 8, !tbaa !13
  call void @llvm.lifetime.start.p0(i64 8, ptr %3) #8
  %4 = load ptr, ptr %2, align 8, !tbaa !13
  store ptr %4, ptr %3, align 8, !tbaa !13
  %5 = load ptr, ptr %3, align 8, !tbaa !13
  %6 = getelementptr inbounds nuw %struct.PROV_XORSIG_CTX, ptr %5, i32 0, i32 1
  %7 = load ptr, ptr %6, align 8, !tbaa !144
  call void @CRYPTO_free(ptr noundef %7, ptr noundef @.str.2, i32 noundef 2920)
  %8 = load ptr, ptr %3, align 8, !tbaa !13
  %9 = getelementptr inbounds nuw %struct.PROV_XORSIG_CTX, ptr %8, i32 0, i32 8
  %10 = load ptr, ptr %9, align 8, !tbaa !147
  call void @EVP_MD_CTX_free(ptr noundef %10)
  %11 = load ptr, ptr %3, align 8, !tbaa !13
  %12 = getelementptr inbounds nuw %struct.PROV_XORSIG_CTX, ptr %11, i32 0, i32 7
  %13 = load ptr, ptr %12, align 8, !tbaa !148
  call void @EVP_MD_free(ptr noundef %13)
  %14 = load ptr, ptr %3, align 8, !tbaa !13
  %15 = getelementptr inbounds nuw %struct.PROV_XORSIG_CTX, ptr %14, i32 0, i32 1
  store ptr null, ptr %15, align 8, !tbaa !144
  %16 = load ptr, ptr %3, align 8, !tbaa !13
  %17 = getelementptr inbounds nuw %struct.PROV_XORSIG_CTX, ptr %16, i32 0, i32 8
  store ptr null, ptr %17, align 8, !tbaa !147
  %18 = load ptr, ptr %3, align 8, !tbaa !13
  %19 = getelementptr inbounds nuw %struct.PROV_XORSIG_CTX, ptr %18, i32 0, i32 7
  store ptr null, ptr %19, align 8, !tbaa !148
  %20 = load ptr, ptr %3, align 8, !tbaa !13
  %21 = getelementptr inbounds nuw %struct.PROV_XORSIG_CTX, ptr %20, i32 0, i32 2
  %22 = load ptr, ptr %21, align 8, !tbaa !145
  call void @xor_freekey(ptr noundef %22)
  %23 = load ptr, ptr %3, align 8, !tbaa !13
  %24 = getelementptr inbounds nuw %struct.PROV_XORSIG_CTX, ptr %23, i32 0, i32 2
  store ptr null, ptr %24, align 8, !tbaa !145
  %25 = load ptr, ptr %3, align 8, !tbaa !13
  %26 = getelementptr inbounds nuw %struct.PROV_XORSIG_CTX, ptr %25, i32 0, i32 5
  %27 = load ptr, ptr %26, align 8, !tbaa !149
  call void @CRYPTO_free(ptr noundef %27, ptr noundef @.str.2, i32 noundef 2928)
  %28 = load ptr, ptr %3, align 8, !tbaa !13
  call void @CRYPTO_free(ptr noundef %28, ptr noundef @.str.2, i32 noundef 2929)
  call void @llvm.lifetime.end.p0(i64 8, ptr %3) #8
  ret void
}