; Function Attrs: nounwind uwtable
define internal void @xor_sig_freectx(ptr noundef %0) #0 {
  %2 = getelementptr inbounds nuw i8, ptr %0, i64 8
  %3 = load ptr, ptr %2, align 8, !tbaa !110
  tail call void @CRYPTO_free(ptr noundef %3, ptr noundef nonnull @.str.2, i32 noundef 2920) #16
  %4 = getelementptr inbounds nuw i8, ptr %0, i64 104
  %5 = load ptr, ptr %4, align 8, !tbaa !114
  tail call void @EVP_MD_CTX_free(ptr noundef %5) #16
  %6 = getelementptr inbounds nuw i8, ptr %0, i64 96
  %7 = load ptr, ptr %6, align 8, !tbaa !115
  tail call void @EVP_MD_free(ptr noundef %7) #16
  store ptr null, ptr %2, align 8, !tbaa !110
  %8 = getelementptr inbounds nuw i8, ptr %0, i64 16
  tail call void @llvm.memset.p0.i64(ptr noundef nonnull align 8 dereferenceable(16) %6, i8 0, i64 16, i1 false)
  %9 = load ptr, ptr %8, align 8, !tbaa !111
  %10 = icmp eq ptr %9, null
  br i1 %10, label %xor_freekey.exit, label %11

11:                                               ; preds = %1
  %12 = getelementptr inbounds nuw i8, ptr %9, i64 80
  %13 = atomicrmw sub ptr %12, i32 1 release, align 4
  %14 = icmp eq i32 %13, 1
  br i1 %14, label %CRYPTO_DOWN_REF.exit.thread.i, label %CRYPTO_DOWN_REF.exit.i

CRYPTO_DOWN_REF.exit.thread.i:                    ; preds = %11
  fence acquire
  br label %16

CRYPTO_DOWN_REF.exit.i:                           ; preds = %11
  %15 = icmp sgt i32 %13, 1
  br i1 %15, label %xor_freekey.exit, label %16

16:                                               ; preds = %CRYPTO_DOWN_REF.exit.i, %CRYPTO_DOWN_REF.exit.thread.i
  %17 = getelementptr inbounds nuw i8, ptr %9, i64 72
  %18 = load ptr, ptr %17, align 8, !tbaa !46
  tail call void @CRYPTO_free(ptr noundef %18, ptr noundef nonnull @.str.2, i32 noundef 720) #16
  store ptr null, ptr %17, align 8, !tbaa !46
  tail call void @CRYPTO_free(ptr noundef nonnull %9, ptr noundef nonnull @.str.2, i32 noundef 724) #16
  br label %xor_freekey.exit

xor_freekey.exit:                                 ; preds = %1, %CRYPTO_DOWN_REF.exit.i, %16
  store ptr null, ptr %8, align 8, !tbaa !111
  %19 = getelementptr inbounds nuw i8, ptr %0, i64 80
  %20 = load ptr, ptr %19, align 8, !tbaa !116
  tail call void @CRYPTO_free(ptr noundef %20, ptr noundef nonnull @.str.2, i32 noundef 2928) #16
  tail call void @CRYPTO_free(ptr noundef nonnull %0, ptr noundef nonnull @.str.2, i32 noundef 2929) #16
  ret void
}